target datalayout = "e-m:e-p270:32:32-p271:32:32-p272:64:64-i64:64-i128:128-f80:128-n8:16:32:64-S128"
target triple = "x86_64-pc-linux-gnu"

%struct._address = type { i32, i32, ptr, ptr }
%struct._packet_info = type { ptr, ptr, i32, i32, %struct.nstime_t, %struct.nstime_t, %struct.nstime_t, i8, ptr, ptr, ptr, ptr, %struct._address, %struct._address, %struct._address, %struct._address, %struct._address, %struct._address, i32, ptr, i8, [3 x i8], %struct.anon, i32, i32, i32, i32, ptr, i8, ptr, ptr, i16, i16, i32, i32, i16, i32, i32, ptr, ptr, ptr, i8, i8, i16, i16, i16, i32, i16, i16, ptr, ptr, ptr, ptr, ptr, i32, i32 }
%struct.nstime_t = type { i64, i32 }
%struct.anon = type { i8, [3 x i8] }
%struct.lmp_conversation = type { ptr, i32, i8, ptr }

@irda_address_type = internal global i32 -1, align 4
@proto_irlmp = internal global i32 0, align 4

; Function Attrs: inlinehint nounwind null_pointer_is_valid sspstrong uwtable
define internal void @set_address(ptr noundef %0, i32 noundef %1, i32 noundef %2, ptr noundef %3) #3 {
  %5 = alloca ptr, align 8
  %6 = alloca i32, align 4
  %7 = alloca i32, align 4
  %8 = alloca ptr, align 8
  store ptr %0, ptr %5, align 8
  store i32 %1, ptr %6, align 4
  store i32 %2, ptr %7, align 4
  store ptr %3, ptr %8, align 8
  %9 = load i32, ptr %7, align 4
  %10 = icmp eq i32 %9, 0
  br i1 %10, label %11, label %14

11:                                               ; preds = %4
  br label %12

12:                                               ; preds = %11
  br label %13

13:                                               ; preds = %12
  br label %19

14:                                               ; preds = %4
  br label %15

15:                                               ; preds = %14
  br label %16

16:                                               ; preds = %15
  br label %17

17:                                               ; preds = %16
  br label %18

18:                                               ; preds = %17
  br label %19

19:                                               ; preds = %18, %13
  %20 = load i32, ptr %6, align 4
  %21 = load ptr, ptr %5, align 8
  %22 = getelementptr inbounds nuw %struct._address, ptr %21, i32 0, i32 0
  store i32 %20, ptr %22, align 8
  %23 = load i32, ptr %7, align 4
  %24 = load ptr, ptr %5, align 8
  %25 = getelementptr inbounds nuw %struct._address, ptr %24, i32 0, i32 1
  store i32 %23, ptr %25, align 4
  %26 = load ptr, ptr %8, align 8
  %27 = load ptr, ptr %5, align 8
  %28 = getelementptr inbounds nuw %struct._address, ptr %27, i32 0, i32 2
  store ptr %26, ptr %28, align 8
  %29 = load ptr, ptr %5, align 8
  %30 = getelementptr inbounds nuw %struct._address, ptr %29, i32 0, i32 3
  store ptr null, ptr %30, align 8
  ret void
}

; Function Attrs: null_pointer_is_valid sspstrong uwtable
define hidden void @add_lmp_conversation(ptr noundef %0, i8 noundef zeroext %1, i1 noundef zeroext %2, ptr noundef %3, i8 noundef zeroext %4) #0 {
  %6 = alloca ptr, align 8
  %7 = alloca i8, align 1
  %8 = alloca i8, align 1
  %9 = alloca ptr, align 8
  %10 = alloca i8, align 1
  %11 = alloca i8, align 1
  %12 = alloca %struct._address, align 8
  %13 = alloca %struct._address, align 8
  %14 = alloca ptr, align 8
  %15 = alloca ptr, align 8
  %16 = alloca i32, align 4
  store ptr %0, ptr %6, align 8
  store i8 %1, ptr %7, align 1
  %17 = zext i1 %2 to i8
  store i8 %17, ptr %8, align 1
  store ptr %3, ptr %9, align 8
  store i8 %4, ptr %10, align 1
  call void @llvm.lifetime.start.p0(i64 1, ptr %11) #7
  call void @llvm.lifetime.start.p0(i64 24, ptr %12) #7
  call void @llvm.lifetime.start.p0(i64 24, ptr %13) #7
  call void @llvm.lifetime.start.p0(i64 8, ptr %14) #7
  call void @llvm.lifetime.start.p0(i64 8, ptr %15) #7
  store ptr null, ptr %15, align 8
  %18 = load i32, ptr @irda_address_type, align 4
  call void @set_address(ptr noundef %12, i32 noundef %18, i32 noundef 1, ptr noundef %10)
  %19 = load i8, ptr %10, align 1
  %20 = zext i8 %19 to i32
  %21 = xor i32 %20, 1
  %22 = trunc i32 %21 to i8
  store i8 %22, ptr %11, align 1
  %23 = load i32, ptr @irda_address_type, align 4
  call void @set_address(ptr noundef %13, i32 noundef %23, i32 noundef 1, ptr noundef %11)
  %24 = load ptr, ptr %6, align 8
  %25 = getelementptr inbounds nuw %struct._packet_info, ptr %24, i32 0, i32 3
  %26 = load i32, ptr %25, align 4
  %27 = load i8, ptr %7, align 1
  %28 = zext i8 %27 to i32
  %29 = call ptr @find_conversation(i32 noundef %26, ptr noundef %13, ptr noundef %12, i32 noundef 0, i32 noundef %28, i32 noundef 0, i32 noundef 131072)
  store ptr %29, ptr %14, align 8
  %30 = load ptr, ptr %14, align 8
  %31 = icmp ne ptr %30, null
  br i1 %31, label %32, label %64

32:                                               ; preds = %5
  %33 = load ptr, ptr %14, align 8
  %34 = load i32, ptr @proto_irlmp, align 4
  %35 = call ptr @conversation_get_proto_data(ptr noundef %33, i32 noundef %34)
  store ptr %35, ptr %15, align 8
  br label %36

36:                                               ; preds = %59, %32
  br label %37

37:                                               ; preds = %36
  %38 = load ptr, ptr %15, align 8
  %39 = getelementptr inbounds nuw %struct.lmp_conversation, ptr %38, i32 0, i32 1
  %40 = load i32, ptr %39, align 8
  %41 = load ptr, ptr %6, align 8
  %42 = getelementptr inbounds nuw %struct._packet_info, ptr %41, i32 0, i32 3
  %43 = load i32, ptr %42, align 4
  %44 = icmp eq i32 %40, %43
  br i1 %44, label %45, label %46

45:                                               ; preds = %37
  store i32 1, ptr %16, align 4
  br label %92

46:                                               ; preds = %37
  %47 = load ptr, ptr %15, align 8
  %48 = getelementptr inbounds nuw %struct.lmp_conversation, ptr %47, i32 0, i32 0
  %49 = load ptr, ptr %48, align 8
  %50 = icmp eq ptr %49, null
  br i1 %50, label %51, label %59

51:                                               ; preds = %46
  %52 = call ptr @wmem_file_scope()
  %53 = call noalias ptr @wmem_alloc(ptr noundef %52, i64 noundef 24) #8
  %54 = load ptr, ptr %15, align 8
  %55 = getelementptr inbounds nuw %struct.lmp_conversation, ptr %54, i32 0, i32 0
  store ptr %53, ptr %55, align 8
  %56 = load ptr, ptr %15, align 8
  %57 = getelementptr inbounds nuw %struct.lmp_conversation, ptr %56, i32 0, i32 0
  %58 = load ptr, ptr %57, align 8
  store ptr %58, ptr %15, align 8
  br label %63

59:                                               ; preds = %46
  %60 = load ptr, ptr %15, align 8
  %61 = getelementptr inbounds nuw %struct.lmp_conversation, ptr %60, i32 0, i32 0
  %62 = load ptr, ptr %61, align 8
  store ptr %62, ptr %15, align 8
  br label %36

63:                                               ; preds = %51
  br label %76

64:                                               ; preds = %5
  %65 = load ptr, ptr %6, align 8
  %66 = getelementptr inbounds nuw %struct._packet_info, ptr %65, i32 0, i32 3
  %67 = load i32, ptr %66, align 4
  %68 = load i8, ptr %7, align 1
  %69 = zext i8 %68 to i32
  %70 = call ptr @conversation_new(i32 noundef %67, ptr noundef %13, ptr noundef %12, i32 noundef 0, i32 noundef %69, i32 noundef 0, i32 noundef 2)
  store ptr %70, ptr %14, align 8
  %71 = call ptr @wmem_file_scope()
  %72 = call noalias ptr @wmem_alloc(ptr noundef %71, i64 noundef 24) #8
  store ptr %72, ptr %15, align 8
  %73 = load ptr, ptr %14, align 8
  %74 = load i32, ptr @proto_irlmp, align 4
  %75 = load ptr, ptr %15, align 8
  call void @conversation_add_proto_data(ptr noundef %73, i32 noundef %74, ptr noundef %75)
  br label %76

76:                                               ; preds = %64, %63
  %77 = load ptr, ptr %15, align 8
  %78 = getelementptr inbounds nuw %struct.lmp_conversation, ptr %77, i32 0, i32 0
  store ptr null, ptr %78, align 8
  %79 = load ptr, ptr %6, align 8
  %80 = getelementptr inbounds nuw %struct._packet_info, ptr %79, i32 0, i32 3
  %81 = load i32, ptr %80, align 4
  %82 = load ptr, ptr %15, align 8
  %83 = getelementptr inbounds nuw %struct.lmp_conversation, ptr %82, i32 0, i32 1
  store i32 %81, ptr %83, align 8
  %84 = load i8, ptr %8, align 1, !range !6, !noundef !7
  %85 = trunc i8 %84 to i1
  %86 = load ptr, ptr %15, align 8
  %87 = getelementptr inbounds nuw %struct.lmp_conversation, ptr %86, i32 0, i32 2
  %88 = zext i1 %85 to i8
  store i8 %88, ptr %87, align 4
  %89 = load ptr, ptr %9, align 8
  %90 = load ptr, ptr %15, align 8
  %91 = getelementptr inbounds nuw %struct.lmp_conversation, ptr %90, i32 0, i32 3
  store ptr %89, ptr %91, align 8
  store i32 0, ptr %16, align 4
  br label %92

92:                                               ; preds = %76, %45
  call void @llvm.lifetime.end.p0(i64 8, ptr %15) #7
  call void @llvm.lifetime.end.p0(i64 8, ptr %14) #7
  call void @llvm.lifetime.end.p0(i64 24, ptr %13) #7
  call void @llvm.lifetime.end.p0(i64 24, ptr %12) #7
  call void @llvm.lifetime.end.p0(i64 1, ptr %11) #7
  %93 = load i32, ptr %16, align 4
  switch i32 %93, label %95 [
    i32 0, label %94
    i32 1, label %94
  ]

94:                                               ; preds = %92, %92
  ret void

95:                                               ; preds = %92
  unreachable
}