; Function Attrs: null_pointer_is_valid sspstrong uwtable
define hidden void @add_lmp_conversation(ptr noundef readonly captures(none) %0, i8 noundef zeroext %1, i1 noundef zeroext %2, ptr noundef %3, i8 noundef zeroext %4) local_unnamed_addr #0 {
  %6 = alloca i8, align 1
  %7 = alloca i8, align 1
  %8 = alloca %struct._address, align 8
  %9 = alloca %struct._address, align 8
  %10 = zext i1 %2 to i8
  store i8 %4, ptr %6, align 1
  call void @llvm.lifetime.start.p0(i64 1, ptr nonnull %7) #7
  call void @llvm.lifetime.start.p0(i64 24, ptr nonnull %8) #7
  call void @llvm.lifetime.start.p0(i64 24, ptr nonnull %9) #7
  %11 = load i32, ptr @irda_address_type, align 4
  store i32 %11, ptr %8, align 8
  %12 = getelementptr inbounds nuw i8, ptr %8, i64 4
  store i32 1, ptr %12, align 4
  %13 = getelementptr inbounds nuw i8, ptr %8, i64 8
  store ptr %6, ptr %13, align 8
  %14 = getelementptr inbounds nuw i8, ptr %8, i64 16
  store ptr null, ptr %14, align 8
  %15 = xor i8 %4, 1
  store i8 %15, ptr %7, align 1
  store i32 %11, ptr %9, align 8
  %16 = getelementptr inbounds nuw i8, ptr %9, i64 4
  store i32 1, ptr %16, align 4
  %17 = getelementptr inbounds nuw i8, ptr %9, i64 8
  store ptr %7, ptr %17, align 8
  %18 = getelementptr inbounds nuw i8, ptr %9, i64 16
  store ptr null, ptr %18, align 8
  %19 = getelementptr inbounds nuw i8, ptr %0, i64 20
  %20 = load i32, ptr %19, align 4
  %21 = zext i8 %1 to i32
  %22 = call ptr @find_conversation(i32 noundef %20, ptr noundef nonnull %9, ptr noundef nonnull %8, i32 noundef 0, i32 noundef %21, i32 noundef 0, i32 noundef 131072)
  %.not = icmp eq ptr %22, null
  br i1 %.not, label %37, label %23

23:                                               ; preds = %5
  %24 = load i32, ptr @proto_irlmp, align 4
  %25 = call ptr @conversation_get_proto_data(ptr noundef nonnull %22, i32 noundef %24)
  %26 = load i32, ptr %19, align 4
  br label %27

27:                                               ; preds = %31, %23
  %.0 = phi ptr [ %25, %23 ], [ %32, %31 ]
  %28 = getelementptr inbounds nuw i8, ptr %.0, i64 8
  %29 = load i32, ptr %28, align 8
  %30 = icmp eq i32 %29, %26
  br i1 %30, label %.loopexit, label %31

31:                                               ; preds = %27
  %32 = load ptr, ptr %.0, align 8
  %33 = icmp eq ptr %32, null
  br i1 %33, label %34, label %27

34:                                               ; preds = %31
  %35 = call ptr @wmem_file_scope()
  %36 = call noalias dereferenceable_or_null(24) ptr @wmem_alloc(ptr noundef %35, i64 noundef 24) #8
  store ptr %36, ptr %.0, align 8
  br label %43

37:                                               ; preds = %5
  %38 = load i32, ptr %19, align 4
  %39 = call ptr @conversation_new(i32 noundef %38, ptr noundef nonnull %9, ptr noundef nonnull %8, i32 noundef 0, i32 noundef %21, i32 noundef 0, i32 noundef 2)
  %40 = call ptr @wmem_file_scope()
  %41 = call noalias dereferenceable_or_null(24) ptr @wmem_alloc(ptr noundef %40, i64 noundef 24) #8
  %42 = load i32, ptr @proto_irlmp, align 4
  call void @conversation_add_proto_data(ptr noundef %39, i32 noundef %42, ptr noundef %41)
  br label %43

43:                                               ; preds = %37, %34
  %.1 = phi ptr [ %36, %34 ], [ %41, %37 ]
  store ptr null, ptr %.1, align 8
  %44 = load i32, ptr %19, align 4
  %45 = getelementptr inbounds nuw i8, ptr %.1, i64 8
  store i32 %44, ptr %45, align 8
  %46 = getelementptr inbounds nuw i8, ptr %.1, i64 12
  store i8 %10, ptr %46, align 4
  %47 = getelementptr inbounds nuw i8, ptr %.1, i64 16
  store ptr %3, ptr %47, align 8
  br label %.loopexit

.loopexit:                                        ; preds = %27, %43
  call void @llvm.lifetime.end.p0(i64 24, ptr nonnull %9) #7
  call void @llvm.lifetime.end.p0(i64 24, ptr nonnull %8) #7
  call void @llvm.lifetime.end.p0(i64 1, ptr nonnull %7) #7
  ret void
}